target datalayout = "e-m:e-p270:32:32-p271:32:32-p272:64:64-i64:64-i128:128-f80:128-n8:16:32:64-S128"
target triple = "x86_64-pc-linux-gnu"

%"class.std::unique_ptr.9" = type { %"struct.std::__uniq_ptr_data.10" }
%"struct.std::__uniq_ptr_data.10" = type { %"class.std::__uniq_ptr_impl.11" }
%"class.std::__uniq_ptr_impl.11" = type { %"class.std::tuple.12" }
%"class.std::tuple.12" = type { %"struct.std::_Tuple_impl.13" }
%"struct.std::_Tuple_impl.13" = type { %"struct.std::_Head_base.16" }
%"struct.std::_Head_base.16" = type { ptr }
%"class.clang::Preprocessor" = type { %"class.llvm::unique_function", %"class.std::shared_ptr", ptr, ptr, ptr, ptr, ptr, ptr, %"class.std::unique_ptr", ptr, ptr, ptr, %"class.llvm::BumpPtrAllocatorImpl", ptr, ptr, ptr, ptr, ptr, ptr, ptr, ptr, ptr, ptr, ptr, ptr, ptr, ptr, ptr, ptr, ptr, ptr, ptr, ptr, ptr, ptr, ptr, ptr, ptr, ptr, ptr, ptr, ptr, ptr, ptr, ptr, ptr, ptr, ptr, ptr, ptr, %"class.clang::SourceLocation", %"class.clang::SourceLocation", i32, %"class.clang::SourceLocation", i32, i32, i16, i8, i8, %"class.clang::IdentifierTable", %"class.clang::SelectorTable", %"class.std::unique_ptr.9", %"class.std::unique_ptr.17", %"class.std::unique_ptr.17", %"class.std::vector", ptr, i8, i32, ptr, ptr, i32, %"class.clang::SourceLocation", %"class.clang::SourceLocation", %"class.clang::SourceLocation", %"class.llvm::SmallVector.25", %"class.llvm::DenseMap", i32, i8, i8, [2 x i8], %"class.clang::Preprocessor::StdCXXImportSeq", %"class.clang::Preprocessor::TrackGMF", %"class.clang::Preprocessor::ModuleDeclSeq", i8, [7 x i8], %"struct.std::pair", %"class.clang::SourceLocation", %"class.clang::SourceLocation", i8, ptr, %"class.clang::SourceRange", %"class.clang::CustomizableOptional", %"struct.std::pair.33", i8, i32, i32, i8, i32, %"class.clang::SourceLocation", %"class.clang::Preprocessor::PreambleConditionalStackStore", %"class.std::unique_ptr.41", ptr, %"struct.clang::detail::SearchDirIteratorImpl", %"class.std::unique_ptr.50", ptr, ptr, %"class.std::vector.58", %"class.std::unique_ptr.63", %"class.llvm::SmallVector.71", %"class.llvm::SmallVector.76", %"class.std::map", %"struct.clang::Preprocessor::SubmoduleState", ptr, %"class.llvm::DenseSet", %"class.llvm::SmallSetVector", %"class.llvm::FoldingSet", %"class.llvm::SmallVector.105", %"class.llvm::DenseMap.110", %"class.llvm::SmallDenseSet", %"class.llvm::DenseMap.115", ptr, %"class.llvm::DenseMap.118", i32, i32, i32, i32, i32, i32, i32, i32, i32, i32, i32, i32, i32, i32, i32, i32, %"class.std::__cxx11::basic_string", %"class.clang::FileID", %"class.clang::FileID", i8, i8, i32, [8 x %"class.std::unique_ptr.50"], %"class.llvm::SmallVector.121", %"class.std::vector.126", ptr, %"class.llvm::SmallVector.131", i64, %"class.std::vector.133", %"class.std::vector.138", i8, [7 x i8], %"class.llvm::DenseMap.143", %"class.llvm::DenseMap.146", ptr, ptr, ptr, ptr, ptr, ptr, ptr, ptr, ptr, i8, %"class.clang::SourceLocation", %"class.llvm::SmallVector.149", %struct.anon }
%"class.llvm::unique_function" = type { %"class.llvm::detail::UniqueFunctionBase" }
%"class.llvm::detail::UniqueFunctionBase" = type { %"union.llvm::detail::UniqueFunctionBase<void, const clang::Token &>::StorageUnionT", %"class.llvm::PointerIntPair" }
%"union.llvm::detail::UniqueFunctionBase<void, const clang::Token &>::StorageUnionT" = type { %"struct.llvm::detail::UniqueFunctionBase<void, const clang::Token &>::StorageUnionT::OutOfLineStorageT" }
%"struct.llvm::detail::UniqueFunctionBase<void, const clang::Token &>::StorageUnionT::OutOfLineStorageT" = type { ptr, i64, i64 }
%"class.llvm::PointerIntPair" = type { %"struct.llvm::detail::PunnedPointer" }
%"struct.llvm::detail::PunnedPointer" = type { [8 x i8] }
%"class.std::shared_ptr" = type { %"class.std::__shared_ptr" }
%"class.std::__shared_ptr" = type { ptr, %"class.std::__shared_count" }
%"class.std::__shared_count" = type { ptr }
%"class.std::unique_ptr" = type { %"struct.std::__uniq_ptr_data" }
%"struct.std::__uniq_ptr_data" = type { %"class.std::__uniq_ptr_impl" }
%"class.std::__uniq_ptr_impl" = type { %"class.std::tuple" }
%"class.std::tuple" = type { %"struct.std::_Tuple_impl" }
%"struct.std::_Tuple_impl" = type { %"struct.std::_Head_base.1" }
%"struct.std::_Head_base.1" = type { ptr }
%"class.llvm::BumpPtrAllocatorImpl" = type { ptr, ptr, %"class.llvm::SmallVector", %"class.llvm::SmallVector.3", i64, i64 }
%"class.llvm::SmallVector" = type { %"class.llvm::SmallVectorImpl", %"struct.llvm::SmallVectorStorage" }
%"class.llvm::SmallVectorImpl" = type { %"class.llvm::SmallVectorTemplateBase" }
%"class.llvm::SmallVectorTemplateBase" = type { %"class.llvm::SmallVectorTemplateCommon" }
%"class.llvm::SmallVectorTemplateCommon" = type { %"class.llvm::SmallVectorBase" }
%"class.llvm::SmallVectorBase" = type { ptr, i32, i32 }
%"struct.llvm::SmallVectorStorage" = type { [32 x i8] }
%"class.llvm::SmallVector.3" = type { %"class.llvm::SmallVectorImpl.4" }
%"class.llvm::SmallVectorImpl.4" = type { %"class.llvm::SmallVectorTemplateBase.5" }
%"class.llvm::SmallVectorTemplateBase.5" = type { %"class.llvm::SmallVectorTemplateCommon.6" }
%"class.llvm::SmallVectorTemplateCommon.6" = type { %"class.llvm::SmallVectorBase" }
%"class.clang::IdentifierTable" = type { %"class.llvm::StringMap", ptr }
%"class.llvm::StringMap" = type { %"class.llvm::StringMapImpl", %"class.llvm::detail::AllocatorHolder.8" }
%"class.llvm::StringMapImpl" = type { ptr, i32, i32, i32, i32 }
%"class.llvm::detail::AllocatorHolder.8" = type { %"class.llvm::BumpPtrAllocatorImpl" }
%"class.clang::SelectorTable" = type { ptr }
%"class.std::unique_ptr.17" = type { %"struct.std::__uniq_ptr_data.18" }
%"struct.std::__uniq_ptr_data.18" = type { %"class.std::__uniq_ptr_impl.19" }
%"class.std::__uniq_ptr_impl.19" = type { %"class.std::tuple.20" }
%"class.std::tuple.20" = type { %"struct.std::_Tuple_impl.21" }
%"struct.std::_Tuple_impl.21" = type { %"struct.std::_Head_base.24" }
%"struct.std::_Head_base.24" = type { ptr }
%"class.std::vector" = type { %"struct.std::_Vector_base" }
%"struct.std::_Vector_base" = type { %"struct.std::_Vector_base<clang::CommentHandler *, std::allocator<clang::CommentHandler *>>::_Vector_impl" }
%"struct.std::_Vector_base<clang::CommentHandler *, std::allocator<clang::CommentHandler *>>::_Vector_impl" = type { %"struct.std::_Vector_base<clang::CommentHandler *, std::allocator<clang::CommentHandler *>>::_Vector_impl_data" }
%"struct.std::_Vector_base<clang::CommentHandler *, std::allocator<clang::CommentHandler *>>::_Vector_impl_data" = type { ptr, ptr, ptr }
%"class.llvm::SmallVector.25" = type { %"class.llvm::SmallVectorImpl.26", %"struct.llvm::SmallVectorStorage.29" }
%"class.llvm::SmallVectorImpl.26" = type { %"class.llvm::SmallVectorTemplateBase.27" }
%"class.llvm::SmallVectorTemplateBase.27" = type { %"class.llvm::SmallVectorTemplateCommon.28" }
%"class.llvm::SmallVectorTemplateCommon.28" = type { %"class.llvm::SmallVectorBase" }
%"struct.llvm::SmallVectorStorage.29" = type { [32 x i8] }
%"class.llvm::DenseMap" = type <{ ptr, i32, i32, i32, [4 x i8] }>
%"class.clang::Preprocessor::StdCXXImportSeq" = type <{ i32, i8, [3 x i8] }>
%"class.clang::Preprocessor::TrackGMF" = type { i32 }
%"class.clang::Preprocessor::ModuleDeclSeq" = type { i32, %"class.std::__cxx11::basic_string" }
%"struct.std::pair" = type <{ ptr, %"class.clang::SourceLocation", [4 x i8] }>
%"class.clang::SourceRange" = type { %"class.clang::SourceLocation", %"class.clang::SourceLocation" }
%"class.clang::CustomizableOptional" = type { %"class.clang::optional_detail::OptionalStorage" }
%"class.clang::optional_detail::OptionalStorage" = type { %"class.clang::FileMgr::MapEntryOptionalStorage" }
%"class.clang::FileMgr::MapEntryOptionalStorage" = type { %"class.clang::DirectoryEntryRef" }
%"class.clang::DirectoryEntryRef" = type { ptr }
%"struct.std::pair.33" = type <{ i32, i8, [3 x i8] }>
%"class.clang::Preprocessor::PreambleConditionalStackStore" = type <{ %"class.std::optional", [4 x i8], %"class.llvm::SmallVector.36", i32, [4 x i8] }>
%"class.std::optional" = type { %"struct.std::_Optional_base" }
%"struct.std::_Optional_base" = type { %"struct.std::_Optional_payload" }
%"struct.std::_Optional_payload" = type { %"struct.std::_Optional_payload_base.base", [3 x i8] }
%"struct.std::_Optional_payload_base.base" = type <{ %"union.std::_Optional_payload_base<clang::Preprocessor::PreambleSkipInfo>::_Storage", i8 }>
%"union.std::_Optional_payload_base<clang::Preprocessor::PreambleSkipInfo>::_Storage" = type { %"struct.clang::Preprocessor::PreambleSkipInfo" }
%"struct.clang::Preprocessor::PreambleSkipInfo" = type { %"class.clang::SourceLocation", %"class.clang::SourceLocation", i8, i8, %"class.clang::SourceLocation" }
%"class.llvm::SmallVector.36" = type { %"class.llvm::SmallVectorImpl.37", %"struct.llvm::SmallVectorStorage.40" }
%"class.llvm::SmallVectorImpl.37" = type { %"class.llvm::SmallVectorTemplateBase.38" }
%"class.llvm::SmallVectorTemplateBase.38" = type { %"class.llvm::SmallVectorTemplateCommon.39" }
%"class.llvm::SmallVectorTemplateCommon.39" = type { %"class.llvm::SmallVectorBase" }
%"struct.llvm::SmallVectorStorage.40" = type { [32 x i8] }
%"class.std::unique_ptr.41" = type { %"struct.std::__uniq_ptr_data.42" }
%"struct.std::__uniq_ptr_data.42" = type { %"class.std::__uniq_ptr_impl.43" }
%"class.std::__uniq_ptr_impl.43" = type { %"class.std::tuple.44" }
%"class.std::tuple.44" = type { %"struct.std::_Tuple_impl.45" }
%"struct.std::_Tuple_impl.45" = type { %"struct.std::_Head_base.48" }
%"struct.std::_Head_base.48" = type { ptr }
%"struct.clang::detail::SearchDirIteratorImpl" = type { ptr, i64 }
%"class.std::unique_ptr.50" = type { %"struct.std::__uniq_ptr_data.51" }
%"struct.std::__uniq_ptr_data.51" = type { %"class.std::__uniq_ptr_impl.52" }
%"class.std::__uniq_ptr_impl.52" = type { %"class.std::tuple.53" }
%"class.std::tuple.53" = type { %"struct.std::_Tuple_impl.54" }
%"struct.std::_Tuple_impl.54" = type { %"struct.std::_Head_base.57" }
%"struct.std::_Head_base.57" = type { ptr }
%"class.std::vector.58" = type { %"struct.std::_Vector_base.59" }
%"struct.std::_Vector_base.59" = type { %"struct.std::_Vector_base<clang::Preprocessor::IncludeStackInfo, std::allocator<clang::Preprocessor::IncludeStackInfo>>::_Vector_impl" }
%"struct.std::_Vector_base<clang::Preprocessor::IncludeStackInfo, std::allocator<clang::Preprocessor::IncludeStackInfo>>::_Vector_impl" = type { %"struct.std::_Vector_base<clang::Preprocessor::IncludeStackInfo, std::allocator<clang::Preprocessor::IncludeStackInfo>>::_Vector_impl_data" }
%"struct.std::_Vector_base<clang::Preprocessor::IncludeStackInfo, std::allocator<clang::Preprocessor::IncludeStackInfo>>::_Vector_impl_data" = type { ptr, ptr, ptr }
%"class.std::unique_ptr.63" = type { %"struct.std::__uniq_ptr_data.64" }
%"struct.std::__uniq_ptr_data.64" = type { %"class.std::__uniq_ptr_impl.65" }
%"class.std::__uniq_ptr_impl.65" = type { %"class.std::tuple.66" }
%"class.std::tuple.66" = type { %"struct.std::_Tuple_impl.67" }
%"struct.std::_Tuple_impl.67" = type { %"struct.std::_Head_base.70" }
%"struct.std::_Head_base.70" = type { ptr }
%"class.llvm::SmallVector.71" = type { %"class.llvm::SmallVectorImpl.72", %"struct.llvm::SmallVectorStorage.75" }
%"class.llvm::SmallVectorImpl.72" = type { %"class.llvm::SmallVectorTemplateBase.73" }
%"class.llvm::SmallVectorTemplateBase.73" = type { %"class.llvm::SmallVectorTemplateCommon.74" }
%"class.llvm::SmallVectorTemplateCommon.74" = type { %"class.llvm::SmallVectorBase" }
%"struct.llvm::SmallVectorStorage.75" = type { [112 x i8] }
%"class.llvm::SmallVector.76" = type { %"class.llvm::SmallVectorImpl.77", %"struct.llvm::SmallVectorStorage.80" }
%"class.llvm::SmallVectorImpl.77" = type { %"class.llvm::SmallVectorTemplateBase.78" }
%"class.llvm::SmallVectorTemplateBase.78" = type { %"class.llvm::SmallVectorTemplateCommon.79" }
%"class.llvm::SmallVectorTemplateCommon.79" = type { %"class.llvm::SmallVectorBase" }
%"struct.llvm::SmallVectorStorage.80" = type { [256 x i8] }
%"class.std::map" = type { %"class.std::_Rb_tree" }
%"class.std::_Rb_tree" = type { %"struct.std::_Rb_tree<clang::Module *, std::pair<clang::Module *const, clang::Preprocessor::SubmoduleState>, std::_Select1st<std::pair<clang::Module *const, clang::Preprocessor::SubmoduleState>>, std::less<clang::Module *>>::_Rb_tree_impl" }
%"struct.std::_Rb_tree<clang::Module *, std::pair<clang::Module *const, clang::Preprocessor::SubmoduleState>, std::_Select1st<std::pair<clang::Module *const, clang::Preprocessor::SubmoduleState>>, std::less<clang::Module *>>::_Rb_tree_impl" = type { [8 x i8], %"struct.std::_Rb_tree_header" }
%"struct.std::_Rb_tree_header" = type { %"struct.std::_Rb_tree_node_base", i64 }
%"struct.std::_Rb_tree_node_base" = type { i32, ptr, ptr, ptr }
%"struct.clang::Preprocessor::SubmoduleState" = type { %"class.llvm::DenseMap.84", %"class.clang::VisibleModuleSet" }
%"class.llvm::DenseMap.84" = type <{ ptr, i32, i32, i32, [4 x i8] }>
%"class.clang::VisibleModuleSet" = type <{ %"class.std::vector.87", i32, [4 x i8] }>
%"class.std::vector.87" = type { %"struct.std::_Vector_base.88" }
%"struct.std::_Vector_base.88" = type { %"struct.std::_Vector_base<clang::SourceLocation, std::allocator<clang::SourceLocation>>::_Vector_impl" }
%"struct.std::_Vector_base<clang::SourceLocation, std::allocator<clang::SourceLocation>>::_Vector_impl" = type { %"struct.std::_Vector_base<clang::SourceLocation, std::allocator<clang::SourceLocation>>::_Vector_impl_data" }
%"struct.std::_Vector_base<clang::SourceLocation, std::allocator<clang::SourceLocation>>::_Vector_impl_data" = type { ptr, ptr, ptr }
%"class.llvm::DenseSet" = type { %"class.llvm::detail::DenseSetImpl" }
%"class.llvm::detail::DenseSetImpl" = type { %"class.llvm::DenseMap.92" }
%"class.llvm::DenseMap.92" = type <{ ptr, i32, i32, i32, [4 x i8] }>
%"class.llvm::SmallSetVector" = type { %"class.llvm::SetVector" }
%"class.llvm::SetVector" = type { %"class.llvm::DenseSet.95", %"class.llvm::SmallVector.100" }
%"class.llvm::DenseSet.95" = type { %"class.llvm::detail::DenseSetImpl.96" }
%"class.llvm::detail::DenseSetImpl.96" = type { %"class.llvm::DenseMap.97" }
%"class.llvm::DenseMap.97" = type <{ ptr, i32, i32, i32, [4 x i8] }>
%"class.llvm::SmallVector.100" = type { %"class.llvm::SmallVectorImpl.101", %"struct.llvm::SmallVectorStorage.104" }
%"class.llvm::SmallVectorImpl.101" = type { %"class.llvm::SmallVectorTemplateBase.102" }
%"class.llvm::SmallVectorTemplateBase.102" = type { %"class.llvm::SmallVectorTemplateCommon.103" }
%"class.llvm::SmallVectorTemplateCommon.103" = type { %"class.llvm::SmallVectorBase" }
%"struct.llvm::SmallVectorStorage.104" = type { [16 x i8] }
%"class.llvm::FoldingSet" = type { %"class.llvm::FoldingSetImpl" }
%"class.llvm::FoldingSetImpl" = type { %"class.llvm::FoldingSetBase" }
%"class.llvm::FoldingSetBase" = type { ptr, i32, i32 }
%"class.llvm::SmallVector.105" = type { %"class.llvm::SmallVectorImpl.106", %"struct.llvm::SmallVectorStorage.109" }
%"class.llvm::SmallVectorImpl.106" = type { %"class.llvm::SmallVectorTemplateBase.107" }
%"class.llvm::SmallVectorTemplateBase.107" = type { %"class.llvm::SmallVectorTemplateCommon.108" }
%"class.llvm::SmallVectorTemplateCommon.108" = type { %"class.llvm::SmallVectorBase" }
%"struct.llvm::SmallVectorStorage.109" = type { [256 x i8] }
%"class.llvm::DenseMap.110" = type <{ ptr, i32, i32, i32, [4 x i8] }>
%"class.llvm::SmallDenseSet" = type { %"class.llvm::detail::DenseSetImpl.113" }
%"class.llvm::detail::DenseSetImpl.113" = type { %"class.llvm::SmallDenseMap" }
%"class.llvm::SmallDenseMap" = type { i32, i32, %"struct.llvm::AlignedCharArrayUnion" }
%"struct.llvm::AlignedCharArrayUnion" = type { [128 x i8] }
%"class.llvm::DenseMap.115" = type <{ ptr, i32, i32, i32, [4 x i8] }>
%"class.llvm::DenseMap.118" = type <{ ptr, i32, i32, i32, [4 x i8] }>
%"class.std::__cxx11::basic_string" = type { %"struct.std::__cxx11::basic_string<char>::_Alloc_hider", i64, %union.anon }
%"struct.std::__cxx11::basic_string<char>::_Alloc_hider" = type { ptr }
%union.anon = type { i64, [8 x i8] }
%"class.clang::FileID" = type { i32 }
%"class.llvm::SmallVector.121" = type { %"class.llvm::SmallVectorImpl.122", %"struct.llvm::SmallVectorStorage.125" }
%"class.llvm::SmallVectorImpl.122" = type { %"class.llvm::SmallVectorTemplateBase.123" }
%"class.llvm::SmallVectorTemplateBase.123" = type { %"class.llvm::SmallVectorTemplateCommon.124" }
%"class.llvm::SmallVectorTemplateCommon.124" = type { %"class.llvm::SmallVectorBase" }
%"struct.llvm::SmallVectorStorage.125" = type { [384 x i8] }
%"class.std::vector.126" = type { %"struct.std::_Vector_base.127" }
%"struct.std::_Vector_base.127" = type { %"struct.std::_Vector_base<std::pair<clang::TokenLexer *, unsigned long>, std::allocator<std::pair<clang::TokenLexer *, unsigned long>>>::_Vector_impl" }
%"struct.std::_Vector_base<std::pair<clang::TokenLexer *, unsigned long>, std::allocator<std::pair<clang::TokenLexer *, unsigned long>>>::_Vector_impl" = type { %"struct.std::_Vector_base<std::pair<clang::TokenLexer *, unsigned long>, std::allocator<std::pair<clang::TokenLexer *, unsigned long>>>::_Vector_impl_data" }
%"struct.std::_Vector_base<std::pair<clang::TokenLexer *, unsigned long>, std::allocator<std::pair<clang::TokenLexer *, unsigned long>>>::_Vector_impl_data" = type { ptr, ptr, ptr }
%"class.llvm::SmallVector.131" = type { %"class.llvm::SmallVectorImpl.122", %"struct.llvm::SmallVectorStorage.132" }
%"struct.llvm::SmallVectorStorage.132" = type { [24 x i8] }
%"class.std::vector.133" = type { %"struct.std::_Vector_base.134" }
%"struct.std::_Vector_base.134" = type { %"struct.std::_Vector_base<unsigned long, std::allocator<unsigned long>>::_Vector_impl" }
%"struct.std::_Vector_base<unsigned long, std::allocator<unsigned long>>::_Vector_impl" = type { %"struct.std::_Vector_base<unsigned long, std::allocator<unsigned long>>::_Vector_impl_data" }
%"struct.std::_Vector_base<unsigned long, std::allocator<unsigned long>>::_Vector_impl_data" = type { ptr, ptr, ptr }
%"class.std::vector.138" = type { %"struct.std::_Vector_base.139" }
%"struct.std::_Vector_base.139" = type { %"struct.std::_Vector_base<std::pair<llvm::SmallVector<clang::Token, 1>, unsigned long>, std::allocator<std::pair<llvm::SmallVector<clang::Token, 1>, unsigned long>>>::_Vector_impl" }
%"struct.std::_Vector_base<std::pair<llvm::SmallVector<clang::Token, 1>, unsigned long>, std::allocator<std::pair<llvm::SmallVector<clang::Token, 1>, unsigned long>>>::_Vector_impl" = type { %"struct.std::_Vector_base<std::pair<llvm::SmallVector<clang::Token, 1>, unsigned long>, std::allocator<std::pair<llvm::SmallVector<clang::Token, 1>, unsigned long>>>::_Vector_impl_data" }
%"struct.std::_Vector_base<std::pair<llvm::SmallVector<clang::Token, 1>, unsigned long>, std::allocator<std::pair<llvm::SmallVector<clang::Token, 1>, unsigned long>>>::_Vector_impl_data" = type { ptr, ptr, ptr }
%"class.llvm::DenseMap.143" = type <{ ptr, i32, i32, i32, [4 x i8] }>
%"class.llvm::DenseMap.146" = type <{ ptr, i32, i32, i32, [4 x i8] }>
%"class.clang::SourceLocation" = type { i32 }
%"class.llvm::SmallVector.149" = type { %"class.llvm::SmallVectorImpl.150", %"struct.llvm::SmallVectorStorage.153" }
%"class.llvm::SmallVectorImpl.150" = type { %"class.llvm::SmallVectorTemplateBase.151" }
%"class.llvm::SmallVectorTemplateBase.151" = type { %"class.llvm::SmallVectorTemplateCommon.152" }
%"class.llvm::SmallVectorTemplateCommon.152" = type { %"class.llvm::SmallVectorBase" }
%"struct.llvm::SmallVectorStorage.153" = type { [128 x i8] }
%struct.anon = type { %"class.llvm::DenseMap.154" }
%"class.llvm::DenseMap.154" = type <{ ptr, i32, i32, i32, [4 x i8] }>

; Function Attrs: mustprogress nounwind uwtable
define linkonce_odr hidden noundef nonnull align 8 dereferenceable(8) ptr @_ZNSt10_Head_baseILm0EPN5clang11PPCallbacksELb0EE7_M_headERKS3_(ptr noundef nonnull align 8 dereferenceable(8) %0) #0 comdat align 2 {
  %2 = alloca ptr, align 8
  store ptr %0, ptr %2, align 8
  %3 = load ptr, ptr %2, align 8
  %4 = getelementptr inbounds nuw %"struct.std::_Head_base.70", ptr %3, i32 0, i32 0
  ret ptr %4
}

; Function Attrs: mustprogress nounwind uwtable
define linkonce_odr hidden noundef nonnull align 8 dereferenceable(8) ptr @_ZNSt11_Tuple_implILm0EJPN5clang11PPCallbacksESt14default_deleteIS1_EEE7_M_headERKS5_(ptr noundef nonnull align 8 dereferenceable(8) %0) #0 comdat align 2 {
  %2 = alloca ptr, align 8
  store ptr %0, ptr %2, align 8
  %3 = load ptr, ptr %2, align 8
  %4 = call noundef nonnull align 8 dereferenceable(8) ptr @_ZNSt10_Head_baseILm0EPN5clang11PPCallbacksELb0EE7_M_headERKS3_(ptr noundef nonnull align 8 dereferenceable(8) %3) #14
  ret ptr %4
}

; Function Attrs: mustprogress nounwind uwtable
define linkonce_odr noundef nonnull align 8 dereferenceable(8) ptr @_ZSt12__get_helperILm0EPN5clang11PPCallbacksEJSt14default_deleteIS1_EEERKT0_RKSt11_Tuple_implIXT_EJS5_DpT1_EE(ptr noundef nonnull align 8 dereferenceable(8) %0) #0 comdat {
  %2 = alloca ptr, align 8
  store ptr %0, ptr %2, align 8
  %3 = load ptr, ptr %2, align 8
  %4 = call noundef nonnull align 8 dereferenceable(8) ptr @_ZNSt11_Tuple_implILm0EJPN5clang11PPCallbacksESt14default_deleteIS1_EEE7_M_headERKS5_(ptr noundef nonnull align 8 dereferenceable(8) %3) #14
  ret ptr %4
}

; Function Attrs: mustprogress nounwind uwtable
define linkonce_odr noundef nonnull align 8 dereferenceable(8) ptr @_ZSt3getILm0EJPN5clang11PPCallbacksESt14default_deleteIS1_EEERKNSt13tuple_elementIXT_ESt5tupleIJDpT0_EEE4typeERKS9_(ptr noundef nonnull align 8 dereferenceable(8) %0) #0 comdat {
  %2 = alloca ptr, align 8
  store ptr %0, ptr %2, align 8
  %3 = load ptr, ptr %2, align 8
  %4 = call noundef nonnull align 8 dereferenceable(8) ptr @_ZSt12__get_helperILm0EPN5clang11PPCallbacksEJSt14default_deleteIS1_EEERKT0_RKSt11_Tuple_implIXT_EJS5_DpT1_EE(ptr noundef nonnull align 8 dereferenceable(8) %3) #14
  ret ptr %4
}

; Function Attrs: mustprogress nounwind uwtable
define linkonce_odr hidden noundef ptr @_ZNKSt15__uniq_ptr_implIN5clang11PPCallbacksESt14default_deleteIS1_EE6_M_ptrEv(ptr noundef nonnull align 8 dereferenceable(8) %0) #0 comdat align 2 {
  %2 = alloca ptr, align 8
  store ptr %0, ptr %2, align 8
  %3 = load ptr, ptr %2, align 8
  %4 = getelementptr inbounds nuw %"class.std::__uniq_ptr_impl.65", ptr %3, i32 0, i32 0
  %5 = call noundef nonnull align 8 dereferenceable(8) ptr @_ZSt3getILm0EJPN5clang11PPCallbacksESt14default_deleteIS1_EEERKNSt13tuple_elementIXT_ESt5tupleIJDpT0_EEE4typeERKS9_(ptr noundef nonnull align 8 dereferenceable(8) %4) #14
  %6 = load ptr, ptr %5, align 8
  ret ptr %6
}

; Function Attrs: mustprogress nounwind uwtable
define linkonce_odr hidden noundef ptr @_ZNKSt10unique_ptrIN5clang11PPCallbacksESt14default_deleteIS1_EE3getEv(ptr noundef nonnull align 8 dereferenceable(8) %0) #0 comdat align 2 {
  %2 = alloca ptr, align 8
  store ptr %0, ptr %2, align 8
  %3 = load ptr, ptr %2, align 8
  %4 = getelementptr inbounds nuw %"class.std::unique_ptr.63", ptr %3, i32 0, i32 0
  %5 = call noundef ptr @_ZNKSt15__uniq_ptr_implIN5clang11PPCallbacksESt14default_deleteIS1_EE6_M_ptrEv(ptr noundef nonnull align 8 dereferenceable(8) %4) #14
  ret ptr %5
}

; Function Attrs: mustprogress nounwind uwtable
define linkonce_odr hidden noundef ptr @_ZNKSt10unique_ptrIN5clang11PPCallbacksESt14default_deleteIS1_EEptEv(ptr noundef nonnull align 8 dereferenceable(8) %0) #0 comdat align 2 {
  %2 = alloca ptr, align 8
  store ptr %0, ptr %2, align 8
  %3 = load ptr, ptr %2, align 8
  %4 = call noundef ptr @_ZNKSt10unique_ptrIN5clang11PPCallbacksESt14default_deleteIS1_EE3getEv(ptr noundef nonnull align 8 dereferenceable(8) %3) #14
  ret ptr %4
}

; Function Attrs: mustprogress nounwind uwtable
define linkonce_odr hidden noundef zeroext i1 @_ZNKSt10unique_ptrIN5clang11PPCallbacksESt14default_deleteIS1_EEcvbEv(ptr noundef nonnull align 8 dereferenceable(8) %0) #0 comdat align 2 {
  %2 = alloca ptr, align 8
  store ptr %0, ptr %2, align 8
  %3 = load ptr, ptr %2, align 8
  %4 = call noundef ptr @_ZNKSt10unique_ptrIN5clang11PPCallbacksESt14default_deleteIS1_EE3getEv(ptr noundef nonnull align 8 dereferenceable(8) %3) #14
  %5 = icmp eq ptr %4, null
  %6 = select i1 %5, i1 false, i1 true
  ret i1 %6
}

; Function Attrs: mustprogress nounwind uwtable
define dso_local void @_ZN5clang12Preprocessor13EndSourceFileEv(ptr noundef nonnull align 8 dereferenceable(3288) %0) #0 align 2 {
  %2 = alloca ptr, align 8
  store ptr %0, ptr %2, align 8
  %3 = load ptr, ptr %2, align 8
  %4 = getelementptr inbounds nuw %"class.clang::Preprocessor", ptr %3, i32 0, i32 107
  %5 = call noundef zeroext i1 @_ZNKSt10unique_ptrIN5clang11PPCallbacksESt14default_deleteIS1_EEcvbEv(ptr noundef nonnull align 8 dereferenceable(8) %4) #14
  br i1 %5, label %6, label %12

6:                                                ; preds = %1
  %7 = getelementptr inbounds nuw %"class.clang::Preprocessor", ptr %3, i32 0, i32 107
  %8 = call noundef ptr @_ZNKSt10unique_ptrIN5clang11PPCallbacksESt14default_deleteIS1_EEptEv(ptr noundef nonnull align 8 dereferenceable(8) %7) #14
  %9 = load ptr, ptr %8, align 8
  %10 = getelementptr inbounds ptr, ptr %9, i64 12
  %11 = load ptr, ptr %10, align 8
  call void %11(ptr noundef nonnull align 8 dereferenceable(8) %8)
  br label %12

12:                                               ; preds = %6, %1
  ret void
}