; Function Attrs: mustprogress nounwind uwtable
define dso_local void @_ZN5clang12Preprocessor13EndSourceFileEv(ptr nocapture noundef nonnull readonly align 8 dereferenceable(3288) %0) local_unnamed_addr #0 align 2 {
  %2 = getelementptr inbounds nuw i8, ptr %0, i64 1176
  %3 = load ptr, ptr %2, align 8
  %.not = icmp eq ptr %3, null
  br i1 %.not, label %8, label %4

4:                                                ; preds = %1
  %5 = load ptr, ptr %3, align 8
  %6 = getelementptr inbounds i8, ptr %5, i64 96
  %7 = load ptr, ptr %6, align 8
  tail call void %7(ptr noundef nonnull align 8 dereferenceable(8) %3) #29
  br label %8

8:                                                ; preds = %4, %1
  ret void
}